; Function Attrs: mustprogress uwtable
define hidden void @_ZN4ncnn9ParamDict3setEiRKNSt7__cxx1112basic_stringIcSt11char_traitsIcESaIcEEE(ptr noundef nonnull readonly align 8 captures(none) dereferenceable(16) %0, i32 noundef %1, ptr noundef nonnull align 8 dereferenceable(32) %2) local_unnamed_addr #1 align 2 {
  %4 = getelementptr inbounds nuw i8, ptr %0, i64 8
  %5 = load ptr, ptr %4, align 8, !tbaa !21
  %6 = sext i32 %1 to i64
  %7 = getelementptr inbounds [32 x %struct.anon], ptr %5, i64 0, i64 %6
  store i32 7, ptr %7, align 8, !tbaa !24
  %8 = getelementptr inbounds [32 x %struct.anon], ptr %5, i64 0, i64 %6, i32 3
  tail call void @_ZNSt7__cxx1112basic_stringIcSt11char_traitsIcESaIcEE9_M_assignERKS4_(ptr noundef nonnull align 8 dereferenceable(32) %8, ptr noundef nonnull align 8 dereferenceable(32) %2)
  ret void
}